target datalayout = "e-m:e-p270:32:32-p271:32:32-p272:64:64-i64:64-i128:128-f80:128-n8:16:32:64-S128"
target triple = "x86_64-pc-linux-gnu"

%struct._Node = type { %union.anon.35 }
%union.anon.35 = type { %struct.BagNode }
%struct.BagNode = type { i32, i32, ptr, ptr, i32, %union.anon.37, i32, i32, i32, i32, i32 }
%union.anon.37 = type { %struct.anon.40 }
%struct.anon.40 = type { ptr, ptr }
%struct.anon.36 = type { i32, i32, ptr, ptr }
%struct.ConsAltNode = type { i32, i32, ptr, ptr, ptr }
%struct.AnchorNode = type { i32, i32, ptr, ptr, i32, i32, i32, i32, ptr }

; Function Attrs: nounwind uwtable
define internal void @set_parent_node_trav(ptr noundef %0, ptr noundef %1) #0 {
  %3 = alloca ptr, align 8
  %4 = alloca ptr, align 8
  %5 = alloca ptr, align 8
  store ptr %0, ptr %3, align 8, !tbaa !47
  store ptr %1, ptr %4, align 8, !tbaa !47
  %6 = load ptr, ptr %4, align 8, !tbaa !47
  %7 = load ptr, ptr %3, align 8, !tbaa !47
  %8 = getelementptr inbounds nuw %struct._Node, ptr %7, i32 0, i32 0
  %9 = getelementptr inbounds nuw %struct.anon.36, ptr %8, i32 0, i32 2
  store ptr %6, ptr %9, align 8, !tbaa !32
  %10 = load ptr, ptr %3, align 8, !tbaa !47
  %11 = getelementptr inbounds nuw %struct._Node, ptr %10, i32 0, i32 0
  %12 = getelementptr inbounds nuw %struct.anon.36, ptr %11, i32 0, i32 0
  %13 = load i32, ptr %12, align 8, !tbaa !32
  switch i32 %13, label %92 [
    i32 7, label %14
    i32 8, label %14
    i32 6, label %28
    i32 4, label %41
    i32 5, label %47
  ]

14:                                               ; preds = %2, %2
  br label %15

15:                                               ; preds = %21, %14
  %16 = load ptr, ptr %3, align 8, !tbaa !47
  %17 = getelementptr inbounds nuw %struct._Node, ptr %16, i32 0, i32 0
  %18 = getelementptr inbounds nuw %struct.ConsAltNode, ptr %17, i32 0, i32 3
  %19 = load ptr, ptr %18, align 8, !tbaa !32
  %20 = load ptr, ptr %3, align 8, !tbaa !47
  call void @set_parent_node_trav(ptr noundef %19, ptr noundef %20)
  br label %21

21:                                               ; preds = %15
  %22 = load ptr, ptr %3, align 8, !tbaa !47
  %23 = getelementptr inbounds nuw %struct._Node, ptr %22, i32 0, i32 0
  %24 = getelementptr inbounds nuw %struct.ConsAltNode, ptr %23, i32 0, i32 4
  %25 = load ptr, ptr %24, align 8, !tbaa !32
  store ptr %25, ptr %3, align 8, !tbaa !47
  %26 = icmp ne ptr %25, null
  br i1 %26, label %15, label %27, !llvm.loop !194

27:                                               ; preds = %21
  br label %93

28:                                               ; preds = %2
  %29 = load ptr, ptr %3, align 8, !tbaa !47
  %30 = getelementptr inbounds nuw %struct._Node, ptr %29, i32 0, i32 0
  %31 = getelementptr inbounds nuw %struct.AnchorNode, ptr %30, i32 0, i32 4
  %32 = load i32, ptr %31, align 8, !tbaa !32
  %33 = icmp slt i32 %32, 16
  br i1 %33, label %35, label %34

34:                                               ; preds = %28
  br label %93

35:                                               ; preds = %28
  %36 = load ptr, ptr %3, align 8, !tbaa !47
  %37 = getelementptr inbounds nuw %struct._Node, ptr %36, i32 0, i32 0
  %38 = getelementptr inbounds nuw %struct.anon.36, ptr %37, i32 0, i32 3
  %39 = load ptr, ptr %38, align 8, !tbaa !32
  %40 = load ptr, ptr %3, align 8, !tbaa !47
  call void @set_parent_node_trav(ptr noundef %39, ptr noundef %40)
  br label %93

41:                                               ; preds = %2
  %42 = load ptr, ptr %3, align 8, !tbaa !47
  %43 = getelementptr inbounds nuw %struct._Node, ptr %42, i32 0, i32 0
  %44 = getelementptr inbounds nuw %struct.anon.36, ptr %43, i32 0, i32 3
  %45 = load ptr, ptr %44, align 8, !tbaa !32
  %46 = load ptr, ptr %3, align 8, !tbaa !47
  call void @set_parent_node_trav(ptr noundef %45, ptr noundef %46)
  br label %93

47:                                               ; preds = %2
  %48 = load ptr, ptr %3, align 8, !tbaa !47
  %49 = getelementptr inbounds nuw %struct._Node, ptr %48, i32 0, i32 0
  %50 = getelementptr inbounds nuw %struct.anon.36, ptr %49, i32 0, i32 3
  %51 = load ptr, ptr %50, align 8, !tbaa !32
  %52 = icmp ne ptr %51, null
  br i1 %52, label %53, label %59

53:                                               ; preds = %47
  %54 = load ptr, ptr %3, align 8, !tbaa !47
  %55 = getelementptr inbounds nuw %struct._Node, ptr %54, i32 0, i32 0
  %56 = getelementptr inbounds nuw %struct.anon.36, ptr %55, i32 0, i32 3
  %57 = load ptr, ptr %56, align 8, !tbaa !32
  %58 = load ptr, ptr %3, align 8, !tbaa !47
  call void @set_parent_node_trav(ptr noundef %57, ptr noundef %58)
  br label %59

59:                                               ; preds = %53, %47
  call void @llvm.lifetime.start.p0(i64 8, ptr %5) #9
  %60 = load ptr, ptr %3, align 8, !tbaa !47
  %61 = getelementptr inbounds nuw %struct._Node, ptr %60, i32 0, i32 0
  store ptr %61, ptr %5, align 8, !tbaa !15
  %62 = load ptr, ptr %5, align 8, !tbaa !15
  %63 = getelementptr inbounds nuw %struct.BagNode, ptr %62, i32 0, i32 4
  %64 = load i32, ptr %63, align 8, !tbaa !156
  %65 = icmp eq i32 %64, 3
  br i1 %65, label %66, label %91

66:                                               ; preds = %59
  %67 = load ptr, ptr %5, align 8, !tbaa !15
  %68 = getelementptr inbounds nuw %struct.BagNode, ptr %67, i32 0, i32 5
  %69 = getelementptr inbounds nuw %struct.anon.40, ptr %68, i32 0, i32 0
  %70 = load ptr, ptr %69, align 8, !tbaa !32
  %71 = icmp ne ptr %70, null
  br i1 %71, label %72, label %78

72:                                               ; preds = %66
  %73 = load ptr, ptr %5, align 8, !tbaa !15
  %74 = getelementptr inbounds nuw %struct.BagNode, ptr %73, i32 0, i32 5
  %75 = getelementptr inbounds nuw %struct.anon.40, ptr %74, i32 0, i32 0
  %76 = load ptr, ptr %75, align 8, !tbaa !32
  %77 = load ptr, ptr %3, align 8, !tbaa !47
  call void @set_parent_node_trav(ptr noundef %76, ptr noundef %77)
  br label %78

78:                                               ; preds = %72, %66
  %79 = load ptr, ptr %5, align 8, !tbaa !15
  %80 = getelementptr inbounds nuw %struct.BagNode, ptr %79, i32 0, i32 5
  %81 = getelementptr inbounds nuw %struct.anon.40, ptr %80, i32 0, i32 1
  %82 = load ptr, ptr %81, align 8, !tbaa !32
  %83 = icmp ne ptr %82, null
  br i1 %83, label %84, label %90

84:                                               ; preds = %78
  %85 = load ptr, ptr %5, align 8, !tbaa !15
  %86 = getelementptr inbounds nuw %struct.BagNode, ptr %85, i32 0, i32 5
  %87 = getelementptr inbounds nuw %struct.anon.40, ptr %86, i32 0, i32 1
  %88 = load ptr, ptr %87, align 8, !tbaa !32
  %89 = load ptr, ptr %3, align 8, !tbaa !47
  call void @set_parent_node_trav(ptr noundef %88, ptr noundef %89)
  br label %90

90:                                               ; preds = %84, %78
  br label %91

91:                                               ; preds = %90, %59
  call void @llvm.lifetime.end.p0(i64 8, ptr %5) #9
  br label %93

92:                                               ; preds = %2
  br label %93

93:                                               ; preds = %92, %91, %41, %35, %34, %27
  ret void
}